; ModuleID = 'source-C-CXX/57/943.c'
source_filename = "source-C-CXX/57/943.c"
target datalayout = "e-m:e-p270:32:32-p271:32:32-p272:64:64-i64:64-f80:128-n8:16:32:64-S128"
target triple = "x86_64-pc-linux-gnu"

@.str = private unnamed_addr constant [3 x i8] c"%d\00", align 1
@.str.1 = private unnamed_addr constant [2 x i8] c"\0A\00", align 1
@str = private unnamed_addr constant [2 x i8] c"0\00", align 1
@str.4 = private unnamed_addr constant [2 x i8] c"1\00", align 1

; Function Attrs: nounwind sspstrong uwtable
define dso_local i32 @main() local_unnamed_addr #0 {
  %1 = alloca [100 x i8], align 16
  %2 = alloca i32, align 4
  %3 = getelementptr inbounds [100 x i8], [100 x i8]* %1, i64 0, i64 0
  call void @llvm.lifetime.start.p0i8(i64 100, i8* nonnull %3) #6
  %4 = bitcast i32* %2 to i8*
  call void @llvm.lifetime.start.p0i8(i64 4, i8* nonnull %4) #6
  %5 = call i32 (i8*, ...) @__isoc99_scanf(i8* getelementptr inbounds ([3 x i8], [3 x i8]* @.str, i64 0, i64 0), i32* nonnull %2)
  %6 = load i32, i32* %2, align 4, !tbaa !5
  %7 = icmp sgt i32 %6, 0
  br i1 %7, label %8, label %51

8:                                                ; preds = %0, %45
  %9 = phi i32 [ %48, %45 ], [ 0, %0 ]
  %10 = call i32 (i8*, ...) @__isoc99_scanf(i8* getelementptr inbounds ([2 x i8], [2 x i8]* @.str.1, i64 0, i64 0))
  %11 = call i32 (i8*, ...) bitcast (i32 (...)* @gets to i32 (i8*, ...)*)(i8* nonnull %3) #6
  %12 = call i64 @strlen(i8* noundef nonnull %3) #7
  %13 = trunc i64 %12 to i32
  %14 = load i8, i8* %3, align 16, !tbaa !9
  %15 = icmp eq i8 %14, 95
  %16 = and i8 %14, -33
  %17 = add i8 %16, -65
  %18 = icmp ult i8 %17, 26
  %19 = or i1 %18, %15
  br i1 %19, label %20, label %41

20:                                               ; preds = %8
  %21 = icmp sgt i32 %13, 1
  br i1 %21, label %22, label %41

22:                                               ; preds = %20
  %23 = and i64 %12, 4294967295
  br label %24

24:                                               ; preds = %22, %36
  %25 = phi i64 [ 1, %22 ], [ %37, %36 ]
  %26 = getelementptr inbounds [100 x i8], [100 x i8]* %1, i64 0, i64 %25
  %27 = load i8, i8* %26, align 1, !tbaa !9
  %28 = icmp eq i8 %27, 95
  %29 = and i8 %27, -33
  %30 = add i8 %29, -65
  %31 = icmp ult i8 %30, 26
  %32 = or i1 %31, %28
  %33 = add i8 %27, -48
  %34 = icmp ult i8 %33, 10
  %35 = or i1 %32, %34
  br i1 %35, label %36, label %39

36:                                               ; preds = %24
  %37 = add nuw nsw i64 %25, 1
  %38 = icmp eq i64 %37, %23
  br i1 %38, label %45, label %24, !llvm.loop !10

39:                                               ; preds = %24
  %40 = trunc i64 %25 to i32
  br label %41

41:                                               ; preds = %39, %20, %8
  %42 = phi i32 [ 0, %8 ], [ 1, %20 ], [ %40, %39 ]
  %43 = icmp eq i32 %42, %13
  %44 = select i1 %43, i8* getelementptr inbounds ([2 x i8], [2 x i8]* @str.4, i64 0, i64 0), i8* getelementptr inbounds ([2 x i8], [2 x i8]* @str, i64 0, i64 0)
  br label %45

45:                                               ; preds = %36, %41
  %46 = phi i8* [ %44, %41 ], [ getelementptr inbounds ([2 x i8], [2 x i8]* @str.4, i64 0, i64 0), %36 ]
  %47 = call i32 @puts(i8* nonnull dereferenceable(1) %46)
  %48 = add nuw nsw i32 %9, 1
  %49 = load i32, i32* %2, align 4, !tbaa !5
  %50 = icmp slt i32 %48, %49
  br i1 %50, label %8, label %51, !llvm.loop !12

51:                                               ; preds = %45, %0
  call void @llvm.lifetime.end.p0i8(i64 4, i8* nonnull %4) #6
  call void @llvm.lifetime.end.p0i8(i64 100, i8* nonnull %3) #6
  ret i32 0
}

; Function Attrs: argmemonly mustprogress nofree nosync nounwind willreturn
declare void @llvm.lifetime.start.p0i8(i64 immarg, i8* nocapture) #1

; Function Attrs: nofree nounwind
declare noundef i32 @__isoc99_scanf(i8* nocapture noundef readonly, ...) local_unnamed_addr #2

declare i32 @gets(...) local_unnamed_addr #3

; Function Attrs: argmemonly mustprogress nofree nounwind readonly willreturn
declare i64 @strlen(i8* nocapture) local_unnamed_addr #4

; Function Attrs: argmemonly mustprogress nofree nosync nounwind willreturn
declare void @llvm.lifetime.end.p0i8(i64 immarg, i8* nocapture) #1

; Function Attrs: nofree nounwind
declare noundef i32 @puts(i8* nocapture noundef readonly) local_unnamed_addr #5


!llvm.module.flags = !{!0, !1, !2, !3}
!llvm.ident = !{!4}

!0 = !{i32 1, !"wchar_size", i32 4}
!1 = !{i32 7, !"PIC Level", i32 2}
!2 = !{i32 7, !"PIE Level", i32 2}
!3 = !{i32 7, !"uwtable", i32 1}
!4 = !{!"clang version 13.0.0"}
!5 = !{!6, !6, i64 0}
!6 = !{!"int", !7, i64 0}
!7 = !{!"omnipotent char", !8, i64 0}
!8 = !{!"Simple C/C++ TBAA"}
!9 = !{!7, !7, i64 0}
!10 = distinct !{!10, !11}
!11 = !{!"llvm.loop.mustprogress"}
!12 = distinct !{!12, !11}
